; Function Attrs: mustprogress nofree norecurse nosync nounwind willreturn memory(write, argmem: readwrite, inaccessiblemem: none) uwtable
define dso_local void @_ZN4llvm10MCStreamer21emitDwarfLocDirectiveEjjjjjjNS_9StringRefE(ptr nocapture noundef nonnull readonly align 8 dereferenceable(288) %0, i32 noundef %1, i32 noundef %2, i32 noundef %3, i32 noundef %4, i32 noundef %5, i32 noundef %6, ptr nocapture noundef readnone byval(%"class.llvm::StringRef") align 8 %7) unnamed_addr #11 align 2 {
  %9 = getelementptr inbounds nuw i8, ptr %0, i64 8
  %10 = load ptr, ptr %9, align 8
  %11 = getelementptr inbounds nuw i8, ptr %10, i64 1760
  store i32 %1, ptr %11, align 4
  %12 = getelementptr inbounds i8, ptr %10, i64 1764
  store i32 %2, ptr %12, align 4
  %13 = trunc i32 %3 to i16
  %14 = getelementptr inbounds i8, ptr %10, i64 1768
  store i16 %13, ptr %14, align 4
  %15 = trunc i32 %4 to i8
  %16 = getelementptr inbounds i8, ptr %10, i64 1770
  store i8 %15, ptr %16, align 2
  %17 = trunc i32 %5 to i8
  %18 = getelementptr inbounds i8, ptr %10, i64 1771
  store i8 %17, ptr %18, align 1
  %19 = getelementptr inbounds i8, ptr %10, i64 1772
  store i32 %6, ptr %19, align 4
  %20 = getelementptr inbounds nuw i8, ptr %10, i64 1776
  store i8 1, ptr %20, align 8
  ret void
}